target datalayout = "e-m:e-p270:32:32-p271:32:32-p272:64:64-i64:64-i128:128-f80:128-n8:16:32:64-S128"
target triple = "x86_64-unknown-linux-gnu"

%struct.SCSISense = type { i8, i8, i8 }
%struct.VirtIOSCSICommon = type { %struct.VirtIODevice, %struct.VirtIOSCSIConf, i32, i32, ptr, ptr, ptr }
%struct.VirtIODevice = type { %struct.DeviceState, ptr, i8, i8, i16, i64, i64, i64, i64, ptr, i16, i32, i32, ptr, %struct.MemoryListener, i16, i8, i8, i8, i8, i8, i8, i8, i8, i8, ptr, ptr, i8, i8, ptr, ptr, %union.anon.1, %struct.EventNotifier, i8 }
%struct.DeviceState = type { %struct.Object, ptr, ptr, i8, i8, i64, ptr, i32, i8, ptr, %struct.NamedGPIOListHead, %struct.NamedClockListHead, %struct.BusStateHead, i32, i32, i32, %struct.ResettableState, ptr, %struct.MemReentrancyGuard }
%struct.Object = type { ptr, ptr, ptr, i32, ptr }
%struct.NamedGPIOListHead = type { ptr }
%struct.NamedClockListHead = type { ptr }
%struct.BusStateHead = type { ptr }
%struct.ResettableState = type { i32, i8, i8 }
%struct.MemReentrancyGuard = type { i8 }
%struct.MemoryListener = type { ptr, ptr, ptr, ptr, ptr, ptr, ptr, ptr, ptr, ptr, ptr, ptr, ptr, ptr, ptr, ptr, ptr, i32, ptr, ptr, %union.anon, %union.anon.0 }
%union.anon = type { %struct.QTailQLink }
%struct.QTailQLink = type { ptr, ptr }
%union.anon.0 = type { %struct.QTailQLink }
%union.anon.1 = type { %struct.QTailQLink }
%struct.EventNotifier = type { i32, i32, i8 }
%struct.VirtIOSCSIConf = type { i32, i32, i8, i32, i32, ptr, ptr, %struct.CharBackend, i32, ptr }
%struct.CharBackend = type { ptr, ptr, ptr, ptr, ptr, ptr, i32, i32 }
%struct.VirtIOSCSI = type { %struct.VirtIOSCSICommon, %struct.SCSIBus, i32, i8, ptr, %union.anon.3, ptr, i8, i8, i8, i8, i32 }
%struct.SCSIBus = type { %struct.BusState, i32, %struct.SCSISense, ptr, i32 }
%struct.BusState = type { %struct.Object, ptr, ptr, ptr, i32, i8, i8, i32, %union.BusChildHead, %struct.BusStateEntry, %struct.ResettableState }
%union.BusChildHead = type { %struct.QTailQLink }
%struct.BusStateEntry = type { ptr, ptr }
%union.anon.3 = type { %struct.QTailQLink }

@.str.3 = private unnamed_addr constant [14 x i8] c"virtio-device\00", align 1
@.str.4 = private unnamed_addr constant [105 x i8] c"/home/dtcxzyw/WorkSpace/Projects/compilers/llvm-opt-benchmark/bench/qemu/qemu/include/hw/virtio/virtio.h\00", align 1
@__func__.VIRTIO_DEVICE = private unnamed_addr constant [14 x i8] c"VIRTIO_DEVICE\00", align 1

; Function Attrs: nounwind sspstrong uwtable
define internal ptr @VIRTIO_DEVICE(ptr noundef %obj) #0 {
entry:
  %obj.addr = alloca ptr, align 8
  store ptr %obj, ptr %obj.addr, align 8
  %0 = load ptr, ptr %obj.addr, align 8
  %call = call ptr @object_dynamic_cast_assert(ptr noundef %0, ptr noundef @.str.3, ptr noundef @.str.4, i32 noundef 85, ptr noundef @__func__.VIRTIO_DEVICE)
  ret ptr %call
}

; Function Attrs: nounwind sspstrong uwtable
define internal void @virtio_scsi_drained_begin(ptr noundef %bus) #0 {
entry:
  %bus.addr = alloca ptr, align 8
  %s = alloca ptr, align 8
  %__mptr = alloca ptr, align 8
  %tmp = alloca ptr, align 8
  %vdev = alloca ptr, align 8
  %total_queues = alloca i32, align 4
  %i = alloca i32, align 4
  %vq = alloca ptr, align 8
  store ptr %bus, ptr %bus.addr, align 8
  %0 = load ptr, ptr %bus.addr, align 8
  store ptr %0, ptr %__mptr, align 8
  %1 = load ptr, ptr %__mptr, align 8
  %add.ptr = getelementptr i8, ptr %1, i64 -664
  store ptr %add.ptr, ptr %tmp, align 8
  %2 = load ptr, ptr %tmp, align 8
  store ptr %2, ptr %s, align 8
  %3 = load ptr, ptr %s, align 8
  %call = call ptr @VIRTIO_DEVICE(ptr noundef %3)
  store ptr %call, ptr %vdev, align 8
  %4 = load ptr, ptr %s, align 8
  %parent_obj = getelementptr inbounds %struct.VirtIOSCSI, ptr %4, i32 0, i32 0
  %conf = getelementptr inbounds %struct.VirtIOSCSICommon, ptr %parent_obj, i32 0, i32 1
  %num_queues = getelementptr inbounds %struct.VirtIOSCSIConf, ptr %conf, i32 0, i32 0
  %5 = load i32, ptr %num_queues, align 8
  %add = add i32 2, %5
  store i32 %add, ptr %total_queues, align 4
  %6 = load ptr, ptr %s, align 8
  %dataplane_stopping = getelementptr inbounds %struct.VirtIOSCSI, ptr %6, i32 0, i32 9
  %7 = load i8, ptr %dataplane_stopping, align 2
  %tobool = trunc i8 %7 to i1
  br i1 %tobool, label %if.then, label %lor.lhs.false

lor.lhs.false:                                    ; preds = %entry
  %8 = load ptr, ptr %s, align 8
  %dataplane_started = getelementptr inbounds %struct.VirtIOSCSI, ptr %8, i32 0, i32 7
  %9 = load i8, ptr %dataplane_started, align 8
  %tobool1 = trunc i8 %9 to i1
  br i1 %tobool1, label %if.end, label %if.then

if.then:                                          ; preds = %lor.lhs.false, %entry
  br label %for.end

if.end:                                           ; preds = %lor.lhs.false
  store i32 0, ptr %i, align 4
  br label %for.cond

for.cond:                                         ; preds = %for.inc, %if.end
  %10 = load i32, ptr %i, align 4
  %11 = load i32, ptr %total_queues, align 4
  %cmp = icmp ult i32 %10, %11
  br i1 %cmp, label %for.body, label %for.end

for.body:                                         ; preds = %for.cond
  %12 = load ptr, ptr %vdev, align 8
  %13 = load i32, ptr %i, align 4
  %call2 = call ptr @virtio_get_queue(ptr noundef %12, i32 noundef %13)
  store ptr %call2, ptr %vq, align 8
  %14 = load ptr, ptr %vq, align 8
  %15 = load ptr, ptr %s, align 8
  %ctx = getelementptr inbounds %struct.VirtIOSCSI, ptr %15, i32 0, i32 6
  %16 = load ptr, ptr %ctx, align 8
  call void @virtio_queue_aio_detach_host_notifier(ptr noundef %14, ptr noundef %16)
  br label %for.inc

for.inc:                                          ; preds = %for.body
  %17 = load i32, ptr %i, align 4
  %inc = add i32 %17, 1
  store i32 %inc, ptr %i, align 4
  br label %for.cond, !llvm.loop !23

for.end:                                          ; preds = %for.cond, %if.then
  ret void
}